target datalayout = "e-m:e-p270:32:32-p271:32:32-p272:64:64-i64:64-i128:128-f80:128-n8:16:32:64-S128"
target triple = "x86_64-pc-linux-gnu"

%struct.Tuplestorestate = type { i32, i32, i8, i8, i8, i8, i64, i64, i64, i64, ptr, ptr, ptr, ptr, ptr, ptr, ptr, i32, i32, i32, i8, ptr, i32, i32, i32, i32, i64 }
%struct.MinimalTupleData = type { i32, [6 x i8], i16, i16, i8, [0 x i8] }

; Function Attrs: nounwind uwtable
define internal ptr @readtup_heap(ptr noundef %0, i32 noundef %1) #0 {
  %3 = alloca ptr, align 8
  %4 = alloca i32, align 4
  %5 = alloca i32, align 4
  %6 = alloca i32, align 4
  %7 = alloca ptr, align 8
  %8 = alloca ptr, align 8
  store ptr %0, ptr %3, align 8
  store i32 %1, ptr %4, align 4
  call void @llvm.lifetime.start.p0(i64 4, ptr %5) #7
  %9 = load i32, ptr %4, align 4
  %10 = zext i32 %9 to i64
  %11 = sub i64 %10, 4
  %12 = trunc i64 %11 to i32
  store i32 %12, ptr %5, align 4
  call void @llvm.lifetime.start.p0(i64 4, ptr %6) #7
  %13 = load i32, ptr %5, align 4
  %14 = zext i32 %13 to i64
  %15 = add i64 %14, 10
  %16 = trunc i64 %15 to i32
  store i32 %16, ptr %6, align 4
  call void @llvm.lifetime.start.p0(i64 8, ptr %7) #7
  %17 = load i32, ptr %6, align 4
  %18 = zext i32 %17 to i64
  %19 = call ptr @palloc(i64 noundef %18)
  store ptr %19, ptr %7, align 8
  call void @llvm.lifetime.start.p0(i64 8, ptr %8) #7
  %20 = load ptr, ptr %7, align 8
  %21 = getelementptr inbounds nuw i8, ptr %20, i64 10
  store ptr %21, ptr %8, align 8
  %22 = load i32, ptr %6, align 4
  %23 = load ptr, ptr %7, align 8
  %24 = getelementptr inbounds nuw %struct.MinimalTupleData, ptr %23, i32 0, i32 0
  store i32 %22, ptr %24, align 4
  %25 = load ptr, ptr %3, align 8
  %26 = getelementptr inbounds nuw %struct.Tuplestorestate, ptr %25, i32 0, i32 10
  %27 = load ptr, ptr %26, align 8
  %28 = load ptr, ptr %8, align 8
  %29 = load i32, ptr %5, align 4
  %30 = zext i32 %29 to i64
  call void @BufFileReadExact(ptr noundef %27, ptr noundef %28, i64 noundef %30)
  %31 = load ptr, ptr %3, align 8
  %32 = getelementptr inbounds nuw %struct.Tuplestorestate, ptr %31, i32 0, i32 2
  %33 = load i8, ptr %32, align 8, !range !4, !noundef !5
  %34 = trunc i8 %33 to i1
  br i1 %34, label %35, label %39

35:                                               ; preds = %2
  %36 = load ptr, ptr %3, align 8
  %37 = getelementptr inbounds nuw %struct.Tuplestorestate, ptr %36, i32 0, i32 10
  %38 = load ptr, ptr %37, align 8
  call void @BufFileReadExact(ptr noundef %38, ptr noundef %6, i64 noundef 4)
  br label %39

39:                                               ; preds = %35, %2
  %40 = load ptr, ptr %7, align 8
  call void @llvm.lifetime.end.p0(i64 8, ptr %8) #7
  call void @llvm.lifetime.end.p0(i64 8, ptr %7) #7
  call void @llvm.lifetime.end.p0(i64 4, ptr %6) #7
  call void @llvm.lifetime.end.p0(i64 4, ptr %5) #7
  ret ptr %40
}