; Function Attrs: nounwind uwtable
define internal noundef ptr @readtup_heap(ptr noundef readonly captures(none) %0, i32 noundef %1) #0 {
  %3 = alloca i32, align 4
  %4 = add i32 %1, -4
  call void @llvm.lifetime.start.p0(i64 4, ptr nonnull %3) #9
  %5 = zext i32 %4 to i64
  %6 = add i32 %1, 6
  store i32 %6, ptr %3, align 4
  %7 = zext i32 %6 to i64
  %8 = tail call ptr @palloc(i64 noundef %7) #9
  %9 = getelementptr inbounds nuw i8, ptr %8, i64 10
  store i32 %6, ptr %8, align 4
  %10 = getelementptr inbounds nuw i8, ptr %0, i64 48
  %11 = load ptr, ptr %10, align 8
  tail call void @BufFileReadExact(ptr noundef %11, ptr noundef nonnull %9, i64 noundef %5) #9
  %12 = getelementptr inbounds nuw i8, ptr %0, i64 8
  %13 = load i8, ptr %12, align 8, !range !4, !noundef !5
  %14 = trunc nuw i8 %13 to i1
  br i1 %14, label %15, label %17

15:                                               ; preds = %2
  %16 = load ptr, ptr %10, align 8
  call void @BufFileReadExact(ptr noundef %16, ptr noundef nonnull %3, i64 noundef 4) #9
  br label %17

17:                                               ; preds = %15, %2
  call void @llvm.lifetime.end.p0(i64 4, ptr nonnull %3) #9
  ret ptr %8
}